target datalayout = "e-m:e-p270:32:32-p271:32:32-p272:64:64-i64:64-i128:128-f80:128-n8:16:32:64-S128"
target triple = "x86_64-unknown-linux-gnu"

%"class.QuantLib::Integrator" = type { ptr, double, double, i64, i64 }

; Function Attrs: mustprogress nounwind uwtable
define noundef zeroext i1 @_ZNK8QuantLib10Integrator18integrationSuccessEv(ptr noundef nonnull align 8 dereferenceable(40) %this) unnamed_addr #1 align 2 {
entry:
  %this.addr = alloca ptr, align 8
  store ptr %this, ptr %this.addr, align 8, !tbaa !3
  %this1 = load ptr, ptr %this.addr, align 8
  %evaluations_ = getelementptr inbounds nuw %"class.QuantLib::Integrator", ptr %this1, i32 0, i32 4
  %0 = load i64, ptr %evaluations_, align 8, !tbaa !17
  %maxEvaluations_ = getelementptr inbounds nuw %"class.QuantLib::Integrator", ptr %this1, i32 0, i32 3
  %1 = load i64, ptr %maxEvaluations_, align 8, !tbaa !15
  %cmp = icmp ule i64 %0, %1
  br i1 %cmp, label %land.rhs, label %land.end

land.rhs:                                         ; preds = %entry
  %absoluteError_ = getelementptr inbounds nuw %"class.QuantLib::Integrator", ptr %this1, i32 0, i32 2
  %2 = load double, ptr %absoluteError_, align 8, !tbaa !16
  %absoluteAccuracy_ = getelementptr inbounds nuw %"class.QuantLib::Integrator", ptr %this1, i32 0, i32 1
  %3 = load double, ptr %absoluteAccuracy_, align 8, !tbaa !13
  %cmp2 = fcmp ole double %2, %3
  br label %land.end

land.end:                                         ; preds = %land.rhs, %entry
  %4 = phi i1 [ false, %entry ], [ %cmp2, %land.rhs ]
  ret i1 %4
}