; Function Attrs: mustprogress nofree norecurse nosync nounwind willreturn memory(argmem: read) uwtable
define noundef zeroext i1 @_ZNK8QuantLib10Integrator18integrationSuccessEv(ptr nocapture noundef nonnull readonly align 8 dereferenceable(40) %this) unnamed_addr #7 align 2 {
entry:
  %evaluations_ = getelementptr inbounds nuw i8, ptr %this, i64 32
  %0 = load i64, ptr %evaluations_, align 8, !tbaa !25
  %maxEvaluations_ = getelementptr inbounds nuw i8, ptr %this, i64 24
  %1 = load i64, ptr %maxEvaluations_, align 8, !tbaa !11
  %cmp.not = icmp ule i64 %0, %1
  %absoluteError_ = getelementptr inbounds nuw i8, ptr %this, i64 16
  %2 = load double, ptr %absoluteError_, align 8
  %absoluteAccuracy_ = getelementptr inbounds nuw i8, ptr %this, i64 8
  %3 = load double, ptr %absoluteAccuracy_, align 8
  %cmp2 = fcmp ole double %2, %3
  %4 = select i1 %cmp.not, i1 %cmp2, i1 false
  ret i1 %4
}